target datalayout = "e-m:e-p270:32:32-p271:32:32-p272:64:64-i64:64-i128:128-f80:128-n8:16:32:64-S128"
target triple = "x86_64-pc-linux-gnu"

%struct.ErrorData = type { i32, i8, i8, i8, i8, ptr, i32, ptr, ptr, ptr, i32, ptr, ptr, ptr, ptr, ptr, ptr, ptr, ptr, ptr, ptr, ptr, ptr, i32, i32, ptr, i32, ptr }
%struct.__jmp_buf_tag = type { [8 x i64], i32, %struct.__sigset_t }
%struct.__sigset_t = type { [16 x i64] }

@error_context_stack = dso_local global ptr null, align 8
@PG_exception_stack = dso_local global ptr null, align 8
@errordata_stack_depth = internal global i32 -1, align 4
@errordata = internal global [5 x %struct.ErrorData] zeroinitializer, align 16
@.str.2 = private unnamed_addr constant [7 x i8] c"elog.c\00", align 1
@.str.5 = private unnamed_addr constant [28 x i8] c"pg_re_throw tried to return\00", align 1
@log_min_messages = external global i32, align 4

; Function Attrs: inlinehint nounwind uwtable
define internal zeroext i1 @is_log_level_output(i32 noundef %0, i32 noundef %1) #1 {
  %3 = alloca i1, align 1
  %4 = alloca i32, align 4
  %5 = alloca i32, align 4
  store i32 %0, ptr %4, align 4
  store i32 %1, ptr %5, align 4
  %6 = load i32, ptr %4, align 4
  %7 = icmp eq i32 %6, 15
  br i1 %7, label %11, label %8

8:                                                ; preds = %2
  %9 = load i32, ptr %4, align 4
  %10 = icmp eq i32 %9, 16
  br i1 %10, label %11, label %19

11:                                               ; preds = %8, %2
  %12 = load i32, ptr %5, align 4
  %13 = icmp eq i32 %12, 15
  br i1 %13, label %17, label %14

14:                                               ; preds = %11
  %15 = load i32, ptr %5, align 4
  %16 = icmp sle i32 %15, 21
  br i1 %16, label %17, label %18

17:                                               ; preds = %14, %11
  store i1 true, ptr %3, align 1
  br label %40

18:                                               ; preds = %14
  br label %39

19:                                               ; preds = %8
  %20 = load i32, ptr %4, align 4
  %21 = icmp eq i32 %20, 20
  br i1 %21, label %22, label %23

22:                                               ; preds = %19
  store i1 false, ptr %3, align 1
  br label %40

23:                                               ; preds = %19
  %24 = load i32, ptr %5, align 4
  %25 = icmp eq i32 %24, 15
  br i1 %25, label %26, label %31

26:                                               ; preds = %23
  %27 = load i32, ptr %4, align 4
  %28 = icmp sge i32 %27, 22
  br i1 %28, label %29, label %30

29:                                               ; preds = %26
  store i1 true, ptr %3, align 1
  br label %40

30:                                               ; preds = %26
  br label %37

31:                                               ; preds = %23
  %32 = load i32, ptr %4, align 4
  %33 = load i32, ptr %5, align 4
  %34 = icmp sge i32 %32, %33
  br i1 %34, label %35, label %36

35:                                               ; preds = %31
  store i1 true, ptr %3, align 1
  br label %40

36:                                               ; preds = %31
  br label %37

37:                                               ; preds = %36, %30
  br label %38

38:                                               ; preds = %37
  br label %39

39:                                               ; preds = %38, %18
  store i1 false, ptr %3, align 1
  br label %40

40:                                               ; preds = %39, %35, %29, %22, %17
  %41 = load i1, ptr %3, align 1
  ret i1 %41
}

; Function Attrs: inlinehint nounwind uwtable
define internal zeroext i1 @should_output_to_server(i32 noundef %0) #1 {
  %2 = alloca i32, align 4
  store i32 %0, ptr %2, align 4
  %3 = load i32, ptr %2, align 4
  %4 = load i32, ptr @log_min_messages, align 4
  %5 = call zeroext i1 @is_log_level_output(i32 noundef %3, i32 noundef %4)
  ret i1 %5
}

; Function Attrs: noreturn nounwind uwtable
define dso_local void @pg_re_throw() #7 {
  %1 = alloca ptr, align 8
  %2 = load ptr, ptr @PG_exception_stack, align 8
  %3 = icmp ne ptr %2, null
  br i1 %3, label %4, label %7

4:                                                ; preds = %0
  %5 = load ptr, ptr @PG_exception_stack, align 8
  %6 = getelementptr inbounds [1 x %struct.__jmp_buf_tag], ptr %5, i64 0, i64 0
  call void @siglongjmp(ptr noundef %6, i32 noundef 1) #17
  unreachable

7:                                                ; preds = %0
  call void @llvm.lifetime.start.p0(i64 8, ptr %1) #16
  %8 = load i32, ptr @errordata_stack_depth, align 4
  %9 = sext i32 %8 to i64
  %10 = getelementptr inbounds [5 x %struct.ErrorData], ptr @errordata, i64 0, i64 %9
  store ptr %10, ptr %1, align 8
  %11 = load ptr, ptr %1, align 8
  %12 = getelementptr inbounds nuw %struct.ErrorData, ptr %11, i32 0, i32 0
  store i32 22, ptr %12, align 8
  %13 = call zeroext i1 @should_output_to_server(i32 noundef 22)
  %14 = load ptr, ptr %1, align 8
  %15 = getelementptr inbounds nuw %struct.ErrorData, ptr %14, i32 0, i32 1
  %16 = zext i1 %13 to i8
  store i8 %16, ptr %15, align 4
  %17 = call zeroext i1 @should_output_to_client(i32 noundef 22)
  %18 = load ptr, ptr %1, align 8
  %19 = getelementptr inbounds nuw %struct.ErrorData, ptr %18, i32 0, i32 2
  %20 = zext i1 %17 to i8
  store i8 %20, ptr %19, align 1
  store ptr null, ptr @error_context_stack, align 8
  %21 = load ptr, ptr %1, align 8
  %22 = getelementptr inbounds nuw %struct.ErrorData, ptr %21, i32 0, i32 5
  %23 = load ptr, ptr %22, align 8
  %24 = load ptr, ptr %1, align 8
  %25 = getelementptr inbounds nuw %struct.ErrorData, ptr %24, i32 0, i32 6
  %26 = load i32, ptr %25, align 8
  %27 = load ptr, ptr %1, align 8
  %28 = getelementptr inbounds nuw %struct.ErrorData, ptr %27, i32 0, i32 7
  %29 = load ptr, ptr %28, align 8
  call void @errfinish(ptr noundef %23, i32 noundef %26, ptr noundef %29)
  call void @llvm.lifetime.end.p0(i64 8, ptr %1) #16
  br label %30

30:                                               ; preds = %7
  call void @ExceptionalCondition(ptr noundef @.str.5, ptr noundef @.str.2, i32 noundef 2043) #20
  unreachable
}