; Function Attrs: noreturn nounwind uwtable
define dso_local void @pg_re_throw() local_unnamed_addr #8 {
  %1 = load ptr, ptr @PG_exception_stack, align 8
  %.not = icmp eq ptr %1, null
  br i1 %.not, label %should_output_to_server.exit, label %2

2:                                                ; preds = %0
  tail call void @siglongjmp(ptr noundef nonnull %1, i32 noundef 1) #37
  unreachable

should_output_to_server.exit:                     ; preds = %0
  %3 = load i32, ptr @errordata_stack_depth, align 4
  %4 = sext i32 %3 to i64
  %5 = getelementptr inbounds [5 x %struct.ErrorData], ptr @errordata, i64 0, i64 %4
  store i32 22, ptr %5, align 8
  %6 = load i32, ptr @log_min_messages, align 4
  %.not.i.i = icmp slt i32 %6, 23
  %7 = getelementptr inbounds nuw i8, ptr %5, i64 4
  %8 = zext i1 %.not.i.i to i8
  store i8 %8, ptr %7, align 4
  %9 = tail call fastcc zeroext i1 @should_output_to_client(i32 noundef 22)
  %10 = getelementptr inbounds nuw i8, ptr %5, i64 5
  %11 = zext i1 %9 to i8
  store i8 %11, ptr %10, align 1
  store ptr null, ptr @error_context_stack, align 8
  %12 = getelementptr inbounds nuw i8, ptr %5, i64 8
  %13 = load ptr, ptr %12, align 8
  %14 = getelementptr inbounds nuw i8, ptr %5, i64 16
  %15 = load i32, ptr %14, align 8
  %16 = getelementptr inbounds nuw i8, ptr %5, i64 24
  %17 = load ptr, ptr %16, align 8
  tail call void @errfinish(ptr noundef %13, i32 noundef %15, ptr noundef %17)
  tail call void @ExceptionalCondition(ptr noundef nonnull @.str.5, ptr noundef nonnull @.str.2, i32 noundef 2043) #37
  unreachable
}